
elf/median_rvtests.elf:     file format elf32-littleriscv


Disassembly of section _start:

80000000 <_start>:
80000000:	80010137          	lui	sp,0x80010
80000004:	80010113          	add	sp,sp,-2048 # 8000f800 <verify_data+0xecc0>
80000008:	800007b7          	lui	a5,0x80000
8000000c:	02078293          	add	t0,a5,32 # 80000020 <_isr_vector>
80000010:	30529073          	csrw	mtvec,t0
80000014:	494000ef          	jal	800004a8 <main>
80000018:	0b0000ef          	jal	800000c8 <_exit_loop>
8000001c:	00000013          	nop

Disassembly of section .text:

80000020 <_isr_vector>:
80000020:	f7410113          	add	sp,sp,-140
80000024:	09f12423          	sw	t6,136(sp)
80000028:	09e12223          	sw	t5,132(sp)
8000002c:	09d12023          	sw	t4,128(sp)
80000030:	07c12e23          	sw	t3,124(sp)
80000034:	07b12c23          	sw	s11,120(sp)
80000038:	07a12a23          	sw	s10,116(sp)
8000003c:	07912823          	sw	s9,112(sp)
80000040:	07812623          	sw	s8,108(sp)
80000044:	07712423          	sw	s7,104(sp)
80000048:	07612223          	sw	s6,100(sp)
8000004c:	07512023          	sw	s5,96(sp)
80000050:	05412e23          	sw	s4,92(sp)
80000054:	05312c23          	sw	s3,88(sp)
80000058:	05212a23          	sw	s2,84(sp)
8000005c:	05112823          	sw	a7,80(sp)
80000060:	05012623          	sw	a6,76(sp)
80000064:	04f12423          	sw	a5,72(sp)
80000068:	04e12223          	sw	a4,68(sp)
8000006c:	04d12023          	sw	a3,64(sp)
80000070:	02c12e23          	sw	a2,60(sp)
80000074:	02b12c23          	sw	a1,56(sp)
80000078:	02a12a23          	sw	a0,52(sp)
8000007c:	02912823          	sw	s1,48(sp)
80000080:	02812623          	sw	s0,44(sp)
80000084:	02712423          	sw	t2,40(sp)
80000088:	02612223          	sw	t1,36(sp)
8000008c:	02512023          	sw	t0,32(sp)
80000090:	00312c23          	sw	gp,24(sp)
80000094:	00212a23          	sw	sp,20(sp)
80000098:	00112823          	sw	ra,16(sp)
8000009c:	34202473          	csrr	s0,mcause
800000a0:	00812423          	sw	s0,8(sp)
800000a4:	30002473          	csrr	s0,mstatus
800000a8:	00812223          	sw	s0,4(sp)
800000ac:	34102473          	csrr	s0,mepc
800000b0:	00812023          	sw	s0,0(sp)
800000b4:	00010513          	mv	a0,sp
800000b8:	008000ef          	jal	800000c0 <_exception_handler>
800000bc:	00000013          	nop

800000c0 <_exception_handler>:
800000c0:	008000ef          	jal	800000c8 <_exit_loop>
800000c4:	00000013          	nop

800000c8 <_exit_loop>:
800000c8:	7b201073          	csrw	dscratch0,zero
800000cc:	0000006f          	j	800000cc <_exit_loop+0x4>

800000d0 <verify>:
800000d0:	fc010113          	add	sp,sp,-64
800000d4:	02812e23          	sw	s0,60(sp)
800000d8:	04010413          	add	s0,sp,64
800000dc:	fca42623          	sw	a0,-52(s0)
800000e0:	fcb42423          	sw	a1,-56(s0)
800000e4:	fcc42223          	sw	a2,-60(s0)
800000e8:	fe042623          	sw	zero,-20(s0)
800000ec:	0a80006f          	j	80000194 <verify+0xc4>
800000f0:	fec42783          	lw	a5,-20(s0)
800000f4:	00279793          	sll	a5,a5,0x2
800000f8:	fc842703          	lw	a4,-56(s0)
800000fc:	00f707b3          	add	a5,a4,a5
80000100:	0007a783          	lw	a5,0(a5)
80000104:	fef42423          	sw	a5,-24(s0)
80000108:	fec42783          	lw	a5,-20(s0)
8000010c:	00178793          	add	a5,a5,1
80000110:	00279793          	sll	a5,a5,0x2
80000114:	fc842703          	lw	a4,-56(s0)
80000118:	00f707b3          	add	a5,a4,a5
8000011c:	0007a783          	lw	a5,0(a5)
80000120:	fef42223          	sw	a5,-28(s0)
80000124:	fec42783          	lw	a5,-20(s0)
80000128:	00279793          	sll	a5,a5,0x2
8000012c:	fc442703          	lw	a4,-60(s0)
80000130:	00f707b3          	add	a5,a4,a5
80000134:	0007a783          	lw	a5,0(a5)
80000138:	fef42023          	sw	a5,-32(s0)
8000013c:	fec42783          	lw	a5,-20(s0)
80000140:	00178793          	add	a5,a5,1
80000144:	00279793          	sll	a5,a5,0x2
80000148:	fc442703          	lw	a4,-60(s0)
8000014c:	00f707b3          	add	a5,a4,a5
80000150:	0007a783          	lw	a5,0(a5)
80000154:	fcf42e23          	sw	a5,-36(s0)
80000158:	fe842703          	lw	a4,-24(s0)
8000015c:	fe042783          	lw	a5,-32(s0)
80000160:	00f70863          	beq	a4,a5,80000170 <verify+0xa0>
80000164:	fec42783          	lw	a5,-20(s0)
80000168:	00178793          	add	a5,a5,1
8000016c:	0a00006f          	j	8000020c <verify+0x13c>
80000170:	fe442703          	lw	a4,-28(s0)
80000174:	fdc42783          	lw	a5,-36(s0)
80000178:	00f70863          	beq	a4,a5,80000188 <verify+0xb8>
8000017c:	fec42783          	lw	a5,-20(s0)
80000180:	00278793          	add	a5,a5,2
80000184:	0880006f          	j	8000020c <verify+0x13c>
80000188:	fec42783          	lw	a5,-20(s0)
8000018c:	00278793          	add	a5,a5,2
80000190:	fef42623          	sw	a5,-20(s0)
80000194:	fcc42783          	lw	a5,-52(s0)
80000198:	01f7d713          	srl	a4,a5,0x1f
8000019c:	00f707b3          	add	a5,a4,a5
800001a0:	4017d793          	sra	a5,a5,0x1
800001a4:	00179793          	sll	a5,a5,0x1
800001a8:	fec42703          	lw	a4,-20(s0)
800001ac:	f4f742e3          	blt	a4,a5,800000f0 <verify+0x20>
800001b0:	fcc42783          	lw	a5,-52(s0)
800001b4:	0017f793          	and	a5,a5,1
800001b8:	04078863          	beqz	a5,80000208 <verify+0x138>
800001bc:	fcc42703          	lw	a4,-52(s0)
800001c0:	400007b7          	lui	a5,0x40000
800001c4:	fff78793          	add	a5,a5,-1 # 3fffffff <_start-0x40000001>
800001c8:	00f707b3          	add	a5,a4,a5
800001cc:	00279793          	sll	a5,a5,0x2
800001d0:	fc842703          	lw	a4,-56(s0)
800001d4:	00f707b3          	add	a5,a4,a5
800001d8:	0007a703          	lw	a4,0(a5)
800001dc:	fcc42683          	lw	a3,-52(s0)
800001e0:	400007b7          	lui	a5,0x40000
800001e4:	fff78793          	add	a5,a5,-1 # 3fffffff <_start-0x40000001>
800001e8:	00f687b3          	add	a5,a3,a5
800001ec:	00279793          	sll	a5,a5,0x2
800001f0:	fc442683          	lw	a3,-60(s0)
800001f4:	00f687b3          	add	a5,a3,a5
800001f8:	0007a783          	lw	a5,0(a5)
800001fc:	00f70663          	beq	a4,a5,80000208 <verify+0x138>
80000200:	fcc42783          	lw	a5,-52(s0)
80000204:	0080006f          	j	8000020c <verify+0x13c>
80000208:	00000793          	li	a5,0
8000020c:	00078513          	mv	a0,a5
80000210:	03c12403          	lw	s0,60(sp)
80000214:	04010113          	add	sp,sp,64
80000218:	00008067          	ret

8000021c <lfsr>:
8000021c:	fd010113          	add	sp,sp,-48
80000220:	02812623          	sw	s0,44(sp)
80000224:	03010413          	add	s0,sp,48
80000228:	fca42c23          	sw	a0,-40(s0)
8000022c:	fcb42e23          	sw	a1,-36(s0)
80000230:	fdc42583          	lw	a1,-36(s0)
80000234:	01f59593          	sll	a1,a1,0x1f
80000238:	fd842503          	lw	a0,-40(s0)
8000023c:	00155613          	srl	a2,a0,0x1
80000240:	00c5e633          	or	a2,a1,a2
80000244:	fdc42583          	lw	a1,-36(s0)
80000248:	0015d693          	srl	a3,a1,0x1
8000024c:	fd842583          	lw	a1,-40(s0)
80000250:	00c5c833          	xor	a6,a1,a2
80000254:	fdc42583          	lw	a1,-36(s0)
80000258:	00d5c8b3          	xor	a7,a1,a3
8000025c:	00187693          	and	a3,a6,1
80000260:	fed42423          	sw	a3,-24(s0)
80000264:	0008f693          	and	a3,a7,0
80000268:	fed42623          	sw	a3,-20(s0)
8000026c:	fdc42683          	lw	a3,-36(s0)
80000270:	01f69693          	sll	a3,a3,0x1f
80000274:	fd842603          	lw	a2,-40(s0)
80000278:	00165713          	srl	a4,a2,0x1
8000027c:	00e6e733          	or	a4,a3,a4
80000280:	fdc42683          	lw	a3,-36(s0)
80000284:	0016d793          	srl	a5,a3,0x1
80000288:	fe842683          	lw	a3,-24(s0)
8000028c:	01e69393          	sll	t2,a3,0x1e
80000290:	00000313          	li	t1,0
80000294:	00676e33          	or	t3,a4,t1
80000298:	0077eeb3          	or	t4,a5,t2
8000029c:	000e0713          	mv	a4,t3
800002a0:	000e8793          	mv	a5,t4
800002a4:	00070513          	mv	a0,a4
800002a8:	00078593          	mv	a1,a5
800002ac:	02c12403          	lw	s0,44(sp)
800002b0:	03010113          	add	sp,sp,48
800002b4:	00008067          	ret

800002b8 <insn_len>:
800002b8:	fe010113          	add	sp,sp,-32
800002bc:	00812e23          	sw	s0,28(sp)
800002c0:	02010413          	add	s0,sp,32
800002c4:	fea42623          	sw	a0,-20(s0)
800002c8:	fec42783          	lw	a5,-20(s0)
800002cc:	0007d783          	lhu	a5,0(a5)
800002d0:	0037f793          	and	a5,a5,3
800002d4:	00078663          	beqz	a5,800002e0 <insn_len+0x28>
800002d8:	00400793          	li	a5,4
800002dc:	0080006f          	j	800002e4 <insn_len+0x2c>
800002e0:	00200793          	li	a5,2
800002e4:	00078513          	mv	a0,a5
800002e8:	01c12403          	lw	s0,28(sp)
800002ec:	02010113          	add	sp,sp,32
800002f0:	00008067          	ret

800002f4 <median>:
800002f4:	fd010113          	add	sp,sp,-48
800002f8:	02812623          	sw	s0,44(sp)
800002fc:	03010413          	add	s0,sp,48
80000300:	fca42e23          	sw	a0,-36(s0)
80000304:	fcb42c23          	sw	a1,-40(s0)
80000308:	fcc42a23          	sw	a2,-44(s0)
8000030c:	fd442783          	lw	a5,-44(s0)
80000310:	0007a023          	sw	zero,0(a5)
80000314:	fdc42703          	lw	a4,-36(s0)
80000318:	400007b7          	lui	a5,0x40000
8000031c:	fff78793          	add	a5,a5,-1 # 3fffffff <_start-0x40000001>
80000320:	00f707b3          	add	a5,a4,a5
80000324:	00279793          	sll	a5,a5,0x2
80000328:	fd442703          	lw	a4,-44(s0)
8000032c:	00f707b3          	add	a5,a4,a5
80000330:	0007a023          	sw	zero,0(a5)
80000334:	00100793          	li	a5,1
80000338:	fef42623          	sw	a5,-20(s0)
8000033c:	1480006f          	j	80000484 <median+0x190>
80000340:	fec42703          	lw	a4,-20(s0)
80000344:	400007b7          	lui	a5,0x40000
80000348:	fff78793          	add	a5,a5,-1 # 3fffffff <_start-0x40000001>
8000034c:	00f707b3          	add	a5,a4,a5
80000350:	00279793          	sll	a5,a5,0x2
80000354:	fd842703          	lw	a4,-40(s0)
80000358:	00f707b3          	add	a5,a4,a5
8000035c:	0007a783          	lw	a5,0(a5)
80000360:	fef42423          	sw	a5,-24(s0)
80000364:	fec42783          	lw	a5,-20(s0)
80000368:	00279793          	sll	a5,a5,0x2
8000036c:	fd842703          	lw	a4,-40(s0)
80000370:	00f707b3          	add	a5,a4,a5
80000374:	0007a783          	lw	a5,0(a5)
80000378:	fef42223          	sw	a5,-28(s0)
8000037c:	fec42783          	lw	a5,-20(s0)
80000380:	00178793          	add	a5,a5,1
80000384:	00279793          	sll	a5,a5,0x2
80000388:	fd842703          	lw	a4,-40(s0)
8000038c:	00f707b3          	add	a5,a4,a5
80000390:	0007a783          	lw	a5,0(a5)
80000394:	fef42023          	sw	a5,-32(s0)
80000398:	fe842703          	lw	a4,-24(s0)
8000039c:	fe442783          	lw	a5,-28(s0)
800003a0:	06f75863          	bge	a4,a5,80000410 <median+0x11c>
800003a4:	fe442703          	lw	a4,-28(s0)
800003a8:	fe042783          	lw	a5,-32(s0)
800003ac:	02f75063          	bge	a4,a5,800003cc <median+0xd8>
800003b0:	fec42783          	lw	a5,-20(s0)
800003b4:	00279793          	sll	a5,a5,0x2
800003b8:	fd442703          	lw	a4,-44(s0)
800003bc:	00f707b3          	add	a5,a4,a5
800003c0:	fe442703          	lw	a4,-28(s0)
800003c4:	00e7a023          	sw	a4,0(a5)
800003c8:	0b00006f          	j	80000478 <median+0x184>
800003cc:	fe042703          	lw	a4,-32(s0)
800003d0:	fe842783          	lw	a5,-24(s0)
800003d4:	02f75063          	bge	a4,a5,800003f4 <median+0x100>
800003d8:	fec42783          	lw	a5,-20(s0)
800003dc:	00279793          	sll	a5,a5,0x2
800003e0:	fd442703          	lw	a4,-44(s0)
800003e4:	00f707b3          	add	a5,a4,a5
800003e8:	fe842703          	lw	a4,-24(s0)
800003ec:	00e7a023          	sw	a4,0(a5)
800003f0:	0880006f          	j	80000478 <median+0x184>
800003f4:	fec42783          	lw	a5,-20(s0)
800003f8:	00279793          	sll	a5,a5,0x2
800003fc:	fd442703          	lw	a4,-44(s0)
80000400:	00f707b3          	add	a5,a4,a5
80000404:	fe042703          	lw	a4,-32(s0)
80000408:	00e7a023          	sw	a4,0(a5)
8000040c:	06c0006f          	j	80000478 <median+0x184>
80000410:	fe842703          	lw	a4,-24(s0)
80000414:	fe042783          	lw	a5,-32(s0)
80000418:	02f75063          	bge	a4,a5,80000438 <median+0x144>
8000041c:	fec42783          	lw	a5,-20(s0)
80000420:	00279793          	sll	a5,a5,0x2
80000424:	fd442703          	lw	a4,-44(s0)
80000428:	00f707b3          	add	a5,a4,a5
8000042c:	fe842703          	lw	a4,-24(s0)
80000430:	00e7a023          	sw	a4,0(a5)
80000434:	0440006f          	j	80000478 <median+0x184>
80000438:	fe042703          	lw	a4,-32(s0)
8000043c:	fe442783          	lw	a5,-28(s0)
80000440:	02f75063          	bge	a4,a5,80000460 <median+0x16c>
80000444:	fec42783          	lw	a5,-20(s0)
80000448:	00279793          	sll	a5,a5,0x2
8000044c:	fd442703          	lw	a4,-44(s0)
80000450:	00f707b3          	add	a5,a4,a5
80000454:	fe442703          	lw	a4,-28(s0)
80000458:	00e7a023          	sw	a4,0(a5)
8000045c:	01c0006f          	j	80000478 <median+0x184>
80000460:	fec42783          	lw	a5,-20(s0)
80000464:	00279793          	sll	a5,a5,0x2
80000468:	fd442703          	lw	a4,-44(s0)
8000046c:	00f707b3          	add	a5,a4,a5
80000470:	fe042703          	lw	a4,-32(s0)
80000474:	00e7a023          	sw	a4,0(a5)
80000478:	fec42783          	lw	a5,-20(s0)
8000047c:	00178793          	add	a5,a5,1
80000480:	fef42623          	sw	a5,-20(s0)
80000484:	fdc42783          	lw	a5,-36(s0)
80000488:	fff78793          	add	a5,a5,-1
8000048c:	fec42703          	lw	a4,-20(s0)
80000490:	eaf748e3          	blt	a4,a5,80000340 <median+0x4c>
80000494:	00000013          	nop
80000498:	00000013          	nop
8000049c:	02c12403          	lw	s0,44(sp)
800004a0:	03010113          	add	sp,sp,48
800004a4:	00008067          	ret

800004a8 <main>:
800004a8:	9b010113          	add	sp,sp,-1616
800004ac:	64112623          	sw	ra,1612(sp)
800004b0:	64812423          	sw	s0,1608(sp)
800004b4:	65010413          	add	s0,sp,1616
800004b8:	9b040793          	add	a5,s0,-1616
800004bc:	00078613          	mv	a2,a5
800004c0:	800007b7          	lui	a5,0x80000
800004c4:	50078593          	add	a1,a5,1280 # 80000500 <input_data>
800004c8:	19000513          	li	a0,400
800004cc:	e29ff0ef          	jal	800002f4 <median>
800004d0:	9b040713          	add	a4,s0,-1616
800004d4:	800017b7          	lui	a5,0x80001
800004d8:	b4078613          	add	a2,a5,-1216 # 80000b40 <verify_data>
800004dc:	00070593          	mv	a1,a4
800004e0:	19000513          	li	a0,400
800004e4:	bedff0ef          	jal	800000d0 <verify>
800004e8:	00050793          	mv	a5,a0
800004ec:	00078513          	mv	a0,a5
800004f0:	64c12083          	lw	ra,1612(sp)
800004f4:	64812403          	lw	s0,1608(sp)
800004f8:	65010113          	add	sp,sp,1616
800004fc:	00008067          	ret
