
elf/qsort_rvtests.elf:     file format elf32-littleriscv


Disassembly of section _start:

80000000 <_start>:
80000000:	80010137          	lui	sp,0x80010
80000004:	80010113          	add	sp,sp,-2048 # 8000f800 <verify_data+0xcf6c>
80000008:	800007b7          	lui	a5,0x80000
8000000c:	02078293          	add	t0,a5,32 # 80000020 <_isr_vector>
80000010:	30529073          	csrw	mtvec,t0
80000014:	029000ef          	jal	8000083c <main>
80000018:	0b0000ef          	jal	800000c8 <_exit_loop>
8000001c:	00000013          	nop

Disassembly of section .text:

80000020 <_isr_vector>:
80000020:	f7410113          	add	sp,sp,-140
80000024:	09f12423          	sw	t6,136(sp)
80000028:	09e12223          	sw	t5,132(sp)
8000002c:	09d12023          	sw	t4,128(sp)
80000030:	07c12e23          	sw	t3,124(sp)
80000034:	07b12c23          	sw	s11,120(sp)
80000038:	07a12a23          	sw	s10,116(sp)
8000003c:	07912823          	sw	s9,112(sp)
80000040:	07812623          	sw	s8,108(sp)
80000044:	07712423          	sw	s7,104(sp)
80000048:	07612223          	sw	s6,100(sp)
8000004c:	07512023          	sw	s5,96(sp)
80000050:	05412e23          	sw	s4,92(sp)
80000054:	05312c23          	sw	s3,88(sp)
80000058:	05212a23          	sw	s2,84(sp)
8000005c:	05112823          	sw	a7,80(sp)
80000060:	05012623          	sw	a6,76(sp)
80000064:	04f12423          	sw	a5,72(sp)
80000068:	04e12223          	sw	a4,68(sp)
8000006c:	04d12023          	sw	a3,64(sp)
80000070:	02c12e23          	sw	a2,60(sp)
80000074:	02b12c23          	sw	a1,56(sp)
80000078:	02a12a23          	sw	a0,52(sp)
8000007c:	02912823          	sw	s1,48(sp)
80000080:	02812623          	sw	s0,44(sp)
80000084:	02712423          	sw	t2,40(sp)
80000088:	02612223          	sw	t1,36(sp)
8000008c:	02512023          	sw	t0,32(sp)
80000090:	00312c23          	sw	gp,24(sp)
80000094:	00212a23          	sw	sp,20(sp)
80000098:	00112823          	sw	ra,16(sp)
8000009c:	34202473          	csrr	s0,mcause
800000a0:	00812423          	sw	s0,8(sp)
800000a4:	30002473          	csrr	s0,mstatus
800000a8:	00812223          	sw	s0,4(sp)
800000ac:	34102473          	csrr	s0,mepc
800000b0:	00812023          	sw	s0,0(sp)
800000b4:	00010513          	mv	a0,sp
800000b8:	008000ef          	jal	800000c0 <_exception_handler>
800000bc:	00000013          	nop

800000c0 <_exception_handler>:
800000c0:	008000ef          	jal	800000c8 <_exit_loop>
800000c4:	00000013          	nop

800000c8 <_exit_loop>:
800000c8:	7b201073          	csrw	dscratch0,zero
800000cc:	0000006f          	j	800000cc <_exit_loop+0x4>

800000d0 <verify>:
800000d0:	fc010113          	add	sp,sp,-64
800000d4:	02812e23          	sw	s0,60(sp)
800000d8:	04010413          	add	s0,sp,64
800000dc:	fca42623          	sw	a0,-52(s0)
800000e0:	fcb42423          	sw	a1,-56(s0)
800000e4:	fcc42223          	sw	a2,-60(s0)
800000e8:	fe042623          	sw	zero,-20(s0)
800000ec:	0a80006f          	j	80000194 <verify+0xc4>
800000f0:	fec42783          	lw	a5,-20(s0)
800000f4:	00279793          	sll	a5,a5,0x2
800000f8:	fc842703          	lw	a4,-56(s0)
800000fc:	00f707b3          	add	a5,a4,a5
80000100:	0007a783          	lw	a5,0(a5)
80000104:	fef42423          	sw	a5,-24(s0)
80000108:	fec42783          	lw	a5,-20(s0)
8000010c:	00178793          	add	a5,a5,1
80000110:	00279793          	sll	a5,a5,0x2
80000114:	fc842703          	lw	a4,-56(s0)
80000118:	00f707b3          	add	a5,a4,a5
8000011c:	0007a783          	lw	a5,0(a5)
80000120:	fef42223          	sw	a5,-28(s0)
80000124:	fec42783          	lw	a5,-20(s0)
80000128:	00279793          	sll	a5,a5,0x2
8000012c:	fc442703          	lw	a4,-60(s0)
80000130:	00f707b3          	add	a5,a4,a5
80000134:	0007a783          	lw	a5,0(a5)
80000138:	fef42023          	sw	a5,-32(s0)
8000013c:	fec42783          	lw	a5,-20(s0)
80000140:	00178793          	add	a5,a5,1
80000144:	00279793          	sll	a5,a5,0x2
80000148:	fc442703          	lw	a4,-60(s0)
8000014c:	00f707b3          	add	a5,a4,a5
80000150:	0007a783          	lw	a5,0(a5)
80000154:	fcf42e23          	sw	a5,-36(s0)
80000158:	fe842703          	lw	a4,-24(s0)
8000015c:	fe042783          	lw	a5,-32(s0)
80000160:	00f70863          	beq	a4,a5,80000170 <verify+0xa0>
80000164:	fec42783          	lw	a5,-20(s0)
80000168:	00178793          	add	a5,a5,1
8000016c:	0a00006f          	j	8000020c <verify+0x13c>
80000170:	fe442703          	lw	a4,-28(s0)
80000174:	fdc42783          	lw	a5,-36(s0)
80000178:	00f70863          	beq	a4,a5,80000188 <verify+0xb8>
8000017c:	fec42783          	lw	a5,-20(s0)
80000180:	00278793          	add	a5,a5,2
80000184:	0880006f          	j	8000020c <verify+0x13c>
80000188:	fec42783          	lw	a5,-20(s0)
8000018c:	00278793          	add	a5,a5,2
80000190:	fef42623          	sw	a5,-20(s0)
80000194:	fcc42783          	lw	a5,-52(s0)
80000198:	01f7d713          	srl	a4,a5,0x1f
8000019c:	00f707b3          	add	a5,a4,a5
800001a0:	4017d793          	sra	a5,a5,0x1
800001a4:	00179793          	sll	a5,a5,0x1
800001a8:	fec42703          	lw	a4,-20(s0)
800001ac:	f4f742e3          	blt	a4,a5,800000f0 <verify+0x20>
800001b0:	fcc42783          	lw	a5,-52(s0)
800001b4:	0017f793          	and	a5,a5,1
800001b8:	04078863          	beqz	a5,80000208 <verify+0x138>
800001bc:	fcc42703          	lw	a4,-52(s0)
800001c0:	400007b7          	lui	a5,0x40000
800001c4:	fff78793          	add	a5,a5,-1 # 3fffffff <_start-0x40000001>
800001c8:	00f707b3          	add	a5,a4,a5
800001cc:	00279793          	sll	a5,a5,0x2
800001d0:	fc842703          	lw	a4,-56(s0)
800001d4:	00f707b3          	add	a5,a4,a5
800001d8:	0007a703          	lw	a4,0(a5)
800001dc:	fcc42683          	lw	a3,-52(s0)
800001e0:	400007b7          	lui	a5,0x40000
800001e4:	fff78793          	add	a5,a5,-1 # 3fffffff <_start-0x40000001>
800001e8:	00f687b3          	add	a5,a3,a5
800001ec:	00279793          	sll	a5,a5,0x2
800001f0:	fc442683          	lw	a3,-60(s0)
800001f4:	00f687b3          	add	a5,a3,a5
800001f8:	0007a783          	lw	a5,0(a5)
800001fc:	00f70663          	beq	a4,a5,80000208 <verify+0x138>
80000200:	fcc42783          	lw	a5,-52(s0)
80000204:	0080006f          	j	8000020c <verify+0x13c>
80000208:	00000793          	li	a5,0
8000020c:	00078513          	mv	a0,a5
80000210:	03c12403          	lw	s0,60(sp)
80000214:	04010113          	add	sp,sp,64
80000218:	00008067          	ret

8000021c <lfsr>:
8000021c:	fd010113          	add	sp,sp,-48
80000220:	02812623          	sw	s0,44(sp)
80000224:	03010413          	add	s0,sp,48
80000228:	fca42c23          	sw	a0,-40(s0)
8000022c:	fcb42e23          	sw	a1,-36(s0)
80000230:	fdc42583          	lw	a1,-36(s0)
80000234:	01f59593          	sll	a1,a1,0x1f
80000238:	fd842503          	lw	a0,-40(s0)
8000023c:	00155613          	srl	a2,a0,0x1
80000240:	00c5e633          	or	a2,a1,a2
80000244:	fdc42583          	lw	a1,-36(s0)
80000248:	0015d693          	srl	a3,a1,0x1
8000024c:	fd842583          	lw	a1,-40(s0)
80000250:	00c5c833          	xor	a6,a1,a2
80000254:	fdc42583          	lw	a1,-36(s0)
80000258:	00d5c8b3          	xor	a7,a1,a3
8000025c:	00187693          	and	a3,a6,1
80000260:	fed42423          	sw	a3,-24(s0)
80000264:	0008f693          	and	a3,a7,0
80000268:	fed42623          	sw	a3,-20(s0)
8000026c:	fdc42683          	lw	a3,-36(s0)
80000270:	01f69693          	sll	a3,a3,0x1f
80000274:	fd842603          	lw	a2,-40(s0)
80000278:	00165713          	srl	a4,a2,0x1
8000027c:	00e6e733          	or	a4,a3,a4
80000280:	fdc42683          	lw	a3,-36(s0)
80000284:	0016d793          	srl	a5,a3,0x1
80000288:	fe842683          	lw	a3,-24(s0)
8000028c:	01e69393          	sll	t2,a3,0x1e
80000290:	00000313          	li	t1,0
80000294:	00676e33          	or	t3,a4,t1
80000298:	0077eeb3          	or	t4,a5,t2
8000029c:	000e0713          	mv	a4,t3
800002a0:	000e8793          	mv	a5,t4
800002a4:	00070513          	mv	a0,a4
800002a8:	00078593          	mv	a1,a5
800002ac:	02c12403          	lw	s0,44(sp)
800002b0:	03010113          	add	sp,sp,48
800002b4:	00008067          	ret

800002b8 <insn_len>:
800002b8:	fe010113          	add	sp,sp,-32
800002bc:	00812e23          	sw	s0,28(sp)
800002c0:	02010413          	add	s0,sp,32
800002c4:	fea42623          	sw	a0,-20(s0)
800002c8:	fec42783          	lw	a5,-20(s0)
800002cc:	0007d783          	lhu	a5,0(a5)
800002d0:	0037f793          	and	a5,a5,3
800002d4:	00078663          	beqz	a5,800002e0 <insn_len+0x28>
800002d8:	00400793          	li	a5,4
800002dc:	0080006f          	j	800002e4 <insn_len+0x2c>
800002e0:	00200793          	li	a5,2
800002e4:	00078513          	mv	a0,a5
800002e8:	01c12403          	lw	s0,28(sp)
800002ec:	02010113          	add	sp,sp,32
800002f0:	00008067          	ret

800002f4 <insertion_sort>:
800002f4:	fd010113          	add	sp,sp,-48
800002f8:	02812623          	sw	s0,44(sp)
800002fc:	03010413          	add	s0,sp,48
80000300:	fca42e23          	sw	a0,-36(s0)
80000304:	fcb42c23          	sw	a1,-40(s0)
80000308:	fd842783          	lw	a5,-40(s0)
8000030c:	00478793          	add	a5,a5,4
80000310:	fef42623          	sw	a5,-20(s0)
80000314:	0780006f          	j	8000038c <insertion_sort+0x98>
80000318:	fec42783          	lw	a5,-20(s0)
8000031c:	0007a783          	lw	a5,0(a5)
80000320:	fef42223          	sw	a5,-28(s0)
80000324:	fec42783          	lw	a5,-20(s0)
80000328:	fef42423          	sw	a5,-24(s0)
8000032c:	02c0006f          	j	80000358 <insertion_sort+0x64>
80000330:	fe842783          	lw	a5,-24(s0)
80000334:	ffc7a703          	lw	a4,-4(a5)
80000338:	fe842783          	lw	a5,-24(s0)
8000033c:	00e7a023          	sw	a4,0(a5)
80000340:	fe842783          	lw	a5,-24(s0)
80000344:	ffc78793          	add	a5,a5,-4
80000348:	fef42423          	sw	a5,-24(s0)
8000034c:	fe842703          	lw	a4,-24(s0)
80000350:	fd842783          	lw	a5,-40(s0)
80000354:	00f70e63          	beq	a4,a5,80000370 <insertion_sort+0x7c>
80000358:	fe842783          	lw	a5,-24(s0)
8000035c:	ffc78793          	add	a5,a5,-4
80000360:	0007a783          	lw	a5,0(a5)
80000364:	fe442703          	lw	a4,-28(s0)
80000368:	fcf744e3          	blt	a4,a5,80000330 <insertion_sort+0x3c>
8000036c:	0080006f          	j	80000374 <insertion_sort+0x80>
80000370:	00000013          	nop
80000374:	fe842783          	lw	a5,-24(s0)
80000378:	fe442703          	lw	a4,-28(s0)
8000037c:	00e7a023          	sw	a4,0(a5)
80000380:	fec42783          	lw	a5,-20(s0)
80000384:	00478793          	add	a5,a5,4
80000388:	fef42623          	sw	a5,-20(s0)
8000038c:	fdc42783          	lw	a5,-36(s0)
80000390:	00279793          	sll	a5,a5,0x2
80000394:	fd842703          	lw	a4,-40(s0)
80000398:	00f707b3          	add	a5,a4,a5
8000039c:	fec42703          	lw	a4,-20(s0)
800003a0:	f6f76ce3          	bltu	a4,a5,80000318 <insertion_sort+0x24>
800003a4:	00000013          	nop
800003a8:	00000013          	nop
800003ac:	02c12403          	lw	s0,44(sp)
800003b0:	03010113          	add	sp,sp,48
800003b4:	00008067          	ret

800003b8 <selection_sort>:
800003b8:	fd010113          	add	sp,sp,-48
800003bc:	02812623          	sw	s0,44(sp)
800003c0:	03010413          	add	s0,sp,48
800003c4:	fca42e23          	sw	a0,-36(s0)
800003c8:	fcb42c23          	sw	a1,-40(s0)
800003cc:	fd842783          	lw	a5,-40(s0)
800003d0:	fef42623          	sw	a5,-20(s0)
800003d4:	0800006f          	j	80000454 <selection_sort+0x9c>
800003d8:	fec42783          	lw	a5,-20(s0)
800003dc:	00478793          	add	a5,a5,4
800003e0:	fef42423          	sw	a5,-24(s0)
800003e4:	04c0006f          	j	80000430 <selection_sort+0x78>
800003e8:	fec42783          	lw	a5,-20(s0)
800003ec:	0007a703          	lw	a4,0(a5)
800003f0:	fe842783          	lw	a5,-24(s0)
800003f4:	0007a783          	lw	a5,0(a5)
800003f8:	02e7d663          	bge	a5,a4,80000424 <selection_sort+0x6c>
800003fc:	fec42783          	lw	a5,-20(s0)
80000400:	0007a783          	lw	a5,0(a5)
80000404:	fef42223          	sw	a5,-28(s0)
80000408:	fe842783          	lw	a5,-24(s0)
8000040c:	0007a703          	lw	a4,0(a5)
80000410:	fec42783          	lw	a5,-20(s0)
80000414:	00e7a023          	sw	a4,0(a5)
80000418:	fe842783          	lw	a5,-24(s0)
8000041c:	fe442703          	lw	a4,-28(s0)
80000420:	00e7a023          	sw	a4,0(a5)
80000424:	fe842783          	lw	a5,-24(s0)
80000428:	00478793          	add	a5,a5,4
8000042c:	fef42423          	sw	a5,-24(s0)
80000430:	fdc42783          	lw	a5,-36(s0)
80000434:	00279793          	sll	a5,a5,0x2
80000438:	fd842703          	lw	a4,-40(s0)
8000043c:	00f707b3          	add	a5,a4,a5
80000440:	fe842703          	lw	a4,-24(s0)
80000444:	faf762e3          	bltu	a4,a5,800003e8 <selection_sort+0x30>
80000448:	fec42783          	lw	a5,-20(s0)
8000044c:	00478793          	add	a5,a5,4
80000450:	fef42623          	sw	a5,-20(s0)
80000454:	fdc42703          	lw	a4,-36(s0)
80000458:	400007b7          	lui	a5,0x40000
8000045c:	fff78793          	add	a5,a5,-1 # 3fffffff <_start-0x40000001>
80000460:	00f707b3          	add	a5,a4,a5
80000464:	00279793          	sll	a5,a5,0x2
80000468:	fd842703          	lw	a4,-40(s0)
8000046c:	00f707b3          	add	a5,a4,a5
80000470:	fec42703          	lw	a4,-20(s0)
80000474:	f6f762e3          	bltu	a4,a5,800003d8 <selection_sort+0x20>
80000478:	00000013          	nop
8000047c:	00000013          	nop
80000480:	02c12403          	lw	s0,44(sp)
80000484:	03010113          	add	sp,sp,48
80000488:	00008067          	ret

8000048c <sort>:
8000048c:	ee010113          	add	sp,sp,-288
80000490:	10112e23          	sw	ra,284(sp)
80000494:	10812c23          	sw	s0,280(sp)
80000498:	12010413          	add	s0,sp,288
8000049c:	eea42623          	sw	a0,-276(s0)
800004a0:	eeb42423          	sw	a1,-280(s0)
800004a4:	eec42783          	lw	a5,-276(s0)
800004a8:	00279793          	sll	a5,a5,0x2
800004ac:	ee842703          	lw	a4,-280(s0)
800004b0:	00f707b3          	add	a5,a4,a5
800004b4:	fef42623          	sw	a5,-20(s0)
800004b8:	ee842783          	lw	a5,-280(s0)
800004bc:	00478793          	add	a5,a5,4
800004c0:	fef42423          	sw	a5,-24(s0)
800004c4:	efc40793          	add	a5,s0,-260
800004c8:	fef42223          	sw	a5,-28(s0)
800004cc:	fec42703          	lw	a4,-20(s0)
800004d0:	fe842783          	lw	a5,-24(s0)
800004d4:	40f70733          	sub	a4,a4,a5
800004d8:	02400793          	li	a5,36
800004dc:	06e7c463          	blt	a5,a4,80000544 <sort+0xb8>
800004e0:	fec42703          	lw	a4,-20(s0)
800004e4:	fe842783          	lw	a5,-24(s0)
800004e8:	40f707b3          	sub	a5,a4,a5
800004ec:	4027d793          	sra	a5,a5,0x2
800004f0:	00178793          	add	a5,a5,1
800004f4:	00078713          	mv	a4,a5
800004f8:	fe842783          	lw	a5,-24(s0)
800004fc:	ffc78793          	add	a5,a5,-4
80000500:	00078593          	mv	a1,a5
80000504:	00070513          	mv	a0,a4
80000508:	dedff0ef          	jal	800002f4 <insertion_sort>
8000050c:	efc40793          	add	a5,s0,-260
80000510:	fe442703          	lw	a4,-28(s0)
80000514:	30f70863          	beq	a4,a5,80000824 <sort+0x398>
80000518:	fe442783          	lw	a5,-28(s0)
8000051c:	ffc78713          	add	a4,a5,-4
80000520:	fee42223          	sw	a4,-28(s0)
80000524:	0007a783          	lw	a5,0(a5)
80000528:	fef42623          	sw	a5,-20(s0)
8000052c:	fe442783          	lw	a5,-28(s0)
80000530:	ffc78713          	add	a4,a5,-4
80000534:	fee42223          	sw	a4,-28(s0)
80000538:	0007a783          	lw	a5,0(a5)
8000053c:	fef42423          	sw	a5,-24(s0)
80000540:	f8dff06f          	j	800004cc <sort+0x40>
80000544:	fe842703          	lw	a4,-24(s0)
80000548:	ee842783          	lw	a5,-280(s0)
8000054c:	40f707b3          	sub	a5,a4,a5
80000550:	4027d793          	sra	a5,a5,0x2
80000554:	00078693          	mv	a3,a5
80000558:	fec42703          	lw	a4,-20(s0)
8000055c:	ee842783          	lw	a5,-280(s0)
80000560:	40f707b3          	sub	a5,a4,a5
80000564:	4027d793          	sra	a5,a5,0x2
80000568:	00f687b3          	add	a5,a3,a5
8000056c:	01f7d713          	srl	a4,a5,0x1f
80000570:	00f707b3          	add	a5,a4,a5
80000574:	4017d793          	sra	a5,a5,0x1
80000578:	00078713          	mv	a4,a5
8000057c:	400007b7          	lui	a5,0x40000
80000580:	fff78793          	add	a5,a5,-1 # 3fffffff <_start-0x40000001>
80000584:	00f707b3          	add	a5,a4,a5
80000588:	00279793          	sll	a5,a5,0x2
8000058c:	ee842703          	lw	a4,-280(s0)
80000590:	00f707b3          	add	a5,a4,a5
80000594:	0007a783          	lw	a5,0(a5)
80000598:	fcf42c23          	sw	a5,-40(s0)
8000059c:	fe842703          	lw	a4,-24(s0)
800005a0:	ee842783          	lw	a5,-280(s0)
800005a4:	40f707b3          	sub	a5,a4,a5
800005a8:	4027d793          	sra	a5,a5,0x2
800005ac:	00078693          	mv	a3,a5
800005b0:	fec42703          	lw	a4,-20(s0)
800005b4:	ee842783          	lw	a5,-280(s0)
800005b8:	40f707b3          	sub	a5,a4,a5
800005bc:	4027d793          	sra	a5,a5,0x2
800005c0:	00f687b3          	add	a5,a3,a5
800005c4:	01f7d713          	srl	a4,a5,0x1f
800005c8:	00f707b3          	add	a5,a4,a5
800005cc:	4017d793          	sra	a5,a5,0x1
800005d0:	00078713          	mv	a4,a5
800005d4:	400007b7          	lui	a5,0x40000
800005d8:	fff78793          	add	a5,a5,-1 # 3fffffff <_start-0x40000001>
800005dc:	00f707b3          	add	a5,a4,a5
800005e0:	00279793          	sll	a5,a5,0x2
800005e4:	ee842703          	lw	a4,-280(s0)
800005e8:	00f707b3          	add	a5,a4,a5
800005ec:	fe842703          	lw	a4,-24(s0)
800005f0:	00072703          	lw	a4,0(a4)
800005f4:	00e7a023          	sw	a4,0(a5)
800005f8:	fe842783          	lw	a5,-24(s0)
800005fc:	fd842703          	lw	a4,-40(s0)
80000600:	00e7a023          	sw	a4,0(a5)
80000604:	fe842783          	lw	a5,-24(s0)
80000608:	ffc78793          	add	a5,a5,-4
8000060c:	0007a703          	lw	a4,0(a5)
80000610:	fec42783          	lw	a5,-20(s0)
80000614:	ffc78793          	add	a5,a5,-4
80000618:	0007a783          	lw	a5,0(a5)
8000061c:	02e7da63          	bge	a5,a4,80000650 <sort+0x1c4>
80000620:	fe842783          	lw	a5,-24(s0)
80000624:	ffc7a783          	lw	a5,-4(a5)
80000628:	fcf42a23          	sw	a5,-44(s0)
8000062c:	fe842783          	lw	a5,-24(s0)
80000630:	ffc78793          	add	a5,a5,-4
80000634:	fec42703          	lw	a4,-20(s0)
80000638:	ffc72703          	lw	a4,-4(a4)
8000063c:	00e7a023          	sw	a4,0(a5)
80000640:	fec42783          	lw	a5,-20(s0)
80000644:	ffc78793          	add	a5,a5,-4
80000648:	fd442703          	lw	a4,-44(s0)
8000064c:	00e7a023          	sw	a4,0(a5)
80000650:	fe842783          	lw	a5,-24(s0)
80000654:	0007a703          	lw	a4,0(a5)
80000658:	fec42783          	lw	a5,-20(s0)
8000065c:	ffc78793          	add	a5,a5,-4
80000660:	0007a783          	lw	a5,0(a5)
80000664:	02e7d863          	bge	a5,a4,80000694 <sort+0x208>
80000668:	fe842783          	lw	a5,-24(s0)
8000066c:	0007a783          	lw	a5,0(a5)
80000670:	fcf42823          	sw	a5,-48(s0)
80000674:	fec42783          	lw	a5,-20(s0)
80000678:	ffc7a703          	lw	a4,-4(a5)
8000067c:	fe842783          	lw	a5,-24(s0)
80000680:	00e7a023          	sw	a4,0(a5)
80000684:	fec42783          	lw	a5,-20(s0)
80000688:	ffc78793          	add	a5,a5,-4
8000068c:	fd042703          	lw	a4,-48(s0)
80000690:	00e7a023          	sw	a4,0(a5)
80000694:	fe842783          	lw	a5,-24(s0)
80000698:	ffc78793          	add	a5,a5,-4
8000069c:	0007a703          	lw	a4,0(a5)
800006a0:	fe842783          	lw	a5,-24(s0)
800006a4:	0007a783          	lw	a5,0(a5)
800006a8:	02e7d863          	bge	a5,a4,800006d8 <sort+0x24c>
800006ac:	fe842783          	lw	a5,-24(s0)
800006b0:	ffc7a783          	lw	a5,-4(a5)
800006b4:	fcf42623          	sw	a5,-52(s0)
800006b8:	fe842783          	lw	a5,-24(s0)
800006bc:	ffc78793          	add	a5,a5,-4
800006c0:	fe842703          	lw	a4,-24(s0)
800006c4:	00072703          	lw	a4,0(a4)
800006c8:	00e7a023          	sw	a4,0(a5)
800006cc:	fe842783          	lw	a5,-24(s0)
800006d0:	fcc42703          	lw	a4,-52(s0)
800006d4:	00e7a023          	sw	a4,0(a5)
800006d8:	fe842783          	lw	a5,-24(s0)
800006dc:	00478793          	add	a5,a5,4
800006e0:	fef42023          	sw	a5,-32(s0)
800006e4:	fec42783          	lw	a5,-20(s0)
800006e8:	fcf42e23          	sw	a5,-36(s0)
800006ec:	fe842783          	lw	a5,-24(s0)
800006f0:	0007a783          	lw	a5,0(a5)
800006f4:	fcf42423          	sw	a5,-56(s0)
800006f8:	00000013          	nop
800006fc:	fe042783          	lw	a5,-32(s0)
80000700:	00478713          	add	a4,a5,4
80000704:	fee42023          	sw	a4,-32(s0)
80000708:	0007a783          	lw	a5,0(a5)
8000070c:	fc842703          	lw	a4,-56(s0)
80000710:	fee7c6e3          	blt	a5,a4,800006fc <sort+0x270>
80000714:	00000013          	nop
80000718:	fdc42783          	lw	a5,-36(s0)
8000071c:	ffc78713          	add	a4,a5,-4
80000720:	fce42e23          	sw	a4,-36(s0)
80000724:	ff878793          	add	a5,a5,-8
80000728:	0007a783          	lw	a5,0(a5)
8000072c:	fc842703          	lw	a4,-56(s0)
80000730:	fef744e3          	blt	a4,a5,80000718 <sort+0x28c>
80000734:	fdc42703          	lw	a4,-36(s0)
80000738:	fe042783          	lw	a5,-32(s0)
8000073c:	02f76c63          	bltu	a4,a5,80000774 <sort+0x2e8>
80000740:	fe042783          	lw	a5,-32(s0)
80000744:	ffc7a783          	lw	a5,-4(a5)
80000748:	fcf42223          	sw	a5,-60(s0)
8000074c:	fe042783          	lw	a5,-32(s0)
80000750:	ffc78793          	add	a5,a5,-4
80000754:	fdc42703          	lw	a4,-36(s0)
80000758:	ffc72703          	lw	a4,-4(a4)
8000075c:	00e7a023          	sw	a4,0(a5)
80000760:	fdc42783          	lw	a5,-36(s0)
80000764:	ffc78793          	add	a5,a5,-4
80000768:	fc442703          	lw	a4,-60(s0)
8000076c:	00e7a023          	sw	a4,0(a5)
80000770:	f89ff06f          	j	800006f8 <sort+0x26c>
80000774:	00000013          	nop
80000778:	fdc42783          	lw	a5,-36(s0)
8000077c:	ffc7a703          	lw	a4,-4(a5)
80000780:	fe842783          	lw	a5,-24(s0)
80000784:	00e7a023          	sw	a4,0(a5)
80000788:	fdc42783          	lw	a5,-36(s0)
8000078c:	ffc78793          	add	a5,a5,-4
80000790:	fc842703          	lw	a4,-56(s0)
80000794:	00e7a023          	sw	a4,0(a5)
80000798:	fe442783          	lw	a5,-28(s0)
8000079c:	00878793          	add	a5,a5,8
800007a0:	fef42223          	sw	a5,-28(s0)
800007a4:	fec42703          	lw	a4,-20(s0)
800007a8:	fe042783          	lw	a5,-32(s0)
800007ac:	40f707b3          	sub	a5,a4,a5
800007b0:	4027d793          	sra	a5,a5,0x2
800007b4:	00178793          	add	a5,a5,1
800007b8:	fdc42683          	lw	a3,-36(s0)
800007bc:	fe842703          	lw	a4,-24(s0)
800007c0:	40e68733          	sub	a4,a3,a4
800007c4:	40275713          	sra	a4,a4,0x2
800007c8:	02e7c863          	blt	a5,a4,800007f8 <sort+0x36c>
800007cc:	fe442783          	lw	a5,-28(s0)
800007d0:	fec42703          	lw	a4,-20(s0)
800007d4:	00e7a023          	sw	a4,0(a5)
800007d8:	fe442783          	lw	a5,-28(s0)
800007dc:	ffc78793          	add	a5,a5,-4
800007e0:	fe042703          	lw	a4,-32(s0)
800007e4:	00e7a023          	sw	a4,0(a5)
800007e8:	fdc42783          	lw	a5,-36(s0)
800007ec:	ffc78793          	add	a5,a5,-4
800007f0:	fef42623          	sw	a5,-20(s0)
800007f4:	cd9ff06f          	j	800004cc <sort+0x40>
800007f8:	fdc42783          	lw	a5,-36(s0)
800007fc:	ffc78713          	add	a4,a5,-4
80000800:	fe442783          	lw	a5,-28(s0)
80000804:	00e7a023          	sw	a4,0(a5)
80000808:	fe442783          	lw	a5,-28(s0)
8000080c:	ffc78793          	add	a5,a5,-4
80000810:	fe842703          	lw	a4,-24(s0)
80000814:	00e7a023          	sw	a4,0(a5)
80000818:	fe042783          	lw	a5,-32(s0)
8000081c:	fef42423          	sw	a5,-24(s0)
80000820:	cadff06f          	j	800004cc <sort+0x40>
80000824:	00000013          	nop
80000828:	00000013          	nop
8000082c:	11c12083          	lw	ra,284(sp)
80000830:	11812403          	lw	s0,280(sp)
80000834:	12010113          	add	sp,sp,288
80000838:	00008067          	ret

8000083c <main>:
8000083c:	ff010113          	add	sp,sp,-16
80000840:	00112623          	sw	ra,12(sp)
80000844:	00812423          	sw	s0,8(sp)
80000848:	01010413          	add	s0,sp,16
8000084c:	800017b7          	lui	a5,0x80001
80000850:	89478593          	add	a1,a5,-1900 # 80000894 <input_data>
80000854:	000017b7          	lui	a5,0x1
80000858:	80078513          	add	a0,a5,-2048 # 800 <_start-0x7ffff800>
8000085c:	c31ff0ef          	jal	8000048c <sort>
80000860:	800037b7          	lui	a5,0x80003
80000864:	89478613          	add	a2,a5,-1900 # 80002894 <verify_data>
80000868:	800017b7          	lui	a5,0x80001
8000086c:	89478593          	add	a1,a5,-1900 # 80000894 <input_data>
80000870:	000017b7          	lui	a5,0x1
80000874:	80078513          	add	a0,a5,-2048 # 800 <_start-0x7ffff800>
80000878:	859ff0ef          	jal	800000d0 <verify>
8000087c:	00050793          	mv	a5,a0
80000880:	00078513          	mv	a0,a5
80000884:	00c12083          	lw	ra,12(sp)
80000888:	00812403          	lw	s0,8(sp)
8000088c:	01010113          	add	sp,sp,16
80000890:	00008067          	ret
